target datalayout = "e-m:e-p270:32:32-p271:32:32-p272:64:64-i64:64-i128:128-f80:128-n8:16:32:64-S128"
target triple = "x86_64-pc-linux-gnu"

%struct.dictType = type { ptr, ptr, ptr, ptr, ptr, ptr, ptr, ptr, ptr, ptr, ptr, i8, ptr, ptr, ptr }
%struct.dict = type { ptr, [2 x ptr], [2 x i64], i64, i16, [2 x i8], i16, [0 x ptr] }

; Function Attrs: inlinehint nounwind uwtable
define internal i64 @dictHashKey(ptr noundef %0, ptr noundef %1, i32 noundef %2) #11 {
  %4 = alloca i64, align 8
  %5 = alloca ptr, align 8
  %6 = alloca ptr, align 8
  %7 = alloca i32, align 4
  store ptr %0, ptr %5, align 8, !tbaa !18
  store ptr %1, ptr %6, align 8, !tbaa !10
  store i32 %2, ptr %7, align 4, !tbaa !29
  %8 = load i32, ptr %7, align 4, !tbaa !29
  %9 = icmp ne i32 %8, 0
  br i1 %9, label %10, label %25

10:                                               ; preds = %3
  %11 = load ptr, ptr %5, align 8, !tbaa !18
  %12 = getelementptr inbounds nuw %struct.dict, ptr %11, i32 0, i32 0
  %13 = load ptr, ptr %12, align 8, !tbaa !13
  %14 = getelementptr inbounds nuw %struct.dictType, ptr %13, i32 0, i32 12
  %15 = load ptr, ptr %14, align 8, !tbaa !67
  %16 = icmp ne ptr %15, null
  br i1 %16, label %17, label %25

17:                                               ; preds = %10
  %18 = load ptr, ptr %5, align 8, !tbaa !18
  %19 = getelementptr inbounds nuw %struct.dict, ptr %18, i32 0, i32 0
  %20 = load ptr, ptr %19, align 8, !tbaa !13
  %21 = getelementptr inbounds nuw %struct.dictType, ptr %20, i32 0, i32 12
  %22 = load ptr, ptr %21, align 8, !tbaa !67
  %23 = load ptr, ptr %6, align 8, !tbaa !10
  %24 = call i64 %22(ptr noundef %23)
  store i64 %24, ptr %4, align 8
  br label %33

25:                                               ; preds = %10, %3
  %26 = load ptr, ptr %5, align 8, !tbaa !18
  %27 = getelementptr inbounds nuw %struct.dict, ptr %26, i32 0, i32 0
  %28 = load ptr, ptr %27, align 8, !tbaa !13
  %29 = getelementptr inbounds nuw %struct.dictType, ptr %28, i32 0, i32 0
  %30 = load ptr, ptr %29, align 8, !tbaa !68
  %31 = load ptr, ptr %6, align 8, !tbaa !10
  %32 = call i64 %30(ptr noundef %31)
  store i64 %32, ptr %4, align 8
  br label %33

33:                                               ; preds = %25, %17
  %34 = load i64, ptr %4, align 8
  ret i64 %34
}

; Function Attrs: nounwind uwtable
define dso_local ptr @dictFind(ptr noundef %0, ptr noundef %1) #0 {
  %3 = alloca ptr, align 8
  %4 = alloca ptr, align 8
  %5 = alloca ptr, align 8
  %6 = alloca i64, align 8
  store ptr %0, ptr %4, align 8, !tbaa !18
  store ptr %1, ptr %5, align 8, !tbaa !10
  %7 = load ptr, ptr %4, align 8, !tbaa !18
  %8 = getelementptr inbounds nuw %struct.dict, ptr %7, i32 0, i32 2
  %9 = getelementptr inbounds [2 x i64], ptr %8, i64 0, i64 0
  %10 = load i64, ptr %9, align 8, !tbaa !11
  %11 = load ptr, ptr %4, align 8, !tbaa !18
  %12 = getelementptr inbounds nuw %struct.dict, ptr %11, i32 0, i32 2
  %13 = getelementptr inbounds [2 x i64], ptr %12, i64 0, i64 1
  %14 = load i64, ptr %13, align 8, !tbaa !11
  %15 = add i64 %10, %14
  %16 = icmp eq i64 %15, 0
  br i1 %16, label %17, label %18

17:                                               ; preds = %2
  store ptr null, ptr %3, align 8
  br label %31

18:                                               ; preds = %2
  call void @llvm.lifetime.start.p0(i64 8, ptr %6) #14
  %19 = load ptr, ptr %4, align 8, !tbaa !18
  %20 = load ptr, ptr %5, align 8, !tbaa !10
  %21 = load ptr, ptr %4, align 8, !tbaa !18
  %22 = getelementptr inbounds nuw %struct.dict, ptr %21, i32 0, i32 4
  %23 = load i16, ptr %22, align 8
  %24 = lshr i16 %23, 15
  %25 = zext i16 %24 to i32
  %26 = call i64 @dictHashKey(ptr noundef %19, ptr noundef %20, i32 noundef %25)
  store i64 %26, ptr %6, align 8, !tbaa !11
  %27 = load ptr, ptr %4, align 8, !tbaa !18
  %28 = load ptr, ptr %5, align 8, !tbaa !10
  %29 = load i64, ptr %6, align 8, !tbaa !11
  %30 = call ptr @dictFindByHash(ptr noundef %27, ptr noundef %28, i64 noundef %29)
  store ptr %30, ptr %3, align 8
  call void @llvm.lifetime.end.p0(i64 8, ptr %6) #14
  br label %31

31:                                               ; preds = %18, %17
  %32 = load ptr, ptr %3, align 8
  ret ptr %32
}