; Function Attrs: nounwind uwtable
define dso_local ptr @dictFind(ptr noundef %0, ptr noundef %1) local_unnamed_addr #3 {
  %3 = getelementptr inbounds nuw i8, ptr %0, i64 24
  %4 = load i64, ptr %3, align 8, !tbaa !14
  %5 = getelementptr inbounds nuw i8, ptr %0, i64 32
  %6 = load i64, ptr %5, align 8, !tbaa !14
  %7 = sub i64 0, %6
  %8 = icmp eq i64 %4, %7
  br i1 %8, label %19, label %9

9:                                                ; preds = %2
  %10 = getelementptr inbounds nuw i8, ptr %0, i64 48
  %11 = load i16, ptr %10, align 8
  %.not.i = icmp sgt i16 %11, -1
  %.pre.i = load ptr, ptr %0, align 8, !tbaa !16
  br i1 %.not.i, label %15, label %12

12:                                               ; preds = %9
  %13 = getelementptr inbounds nuw i8, ptr %.pre.i, i64 96
  %14 = load ptr, ptr %13, align 8, !tbaa !41
  %.not7.i = icmp eq ptr %14, null
  br i1 %.not7.i, label %15, label %dictHashKey.exit

15:                                               ; preds = %12, %9
  %16 = load ptr, ptr %.pre.i, align 8, !tbaa !42
  br label %dictHashKey.exit

dictHashKey.exit:                                 ; preds = %12, %15
  %.sink.i = phi ptr [ %16, %15 ], [ %14, %12 ]
  %17 = tail call i64 %.sink.i(ptr noundef %1) #25
  %18 = tail call ptr @dictFindByHash(ptr noundef nonnull %0, ptr noundef %1, i64 noundef %17)
  br label %19

19:                                               ; preds = %2, %dictHashKey.exit
  %.0 = phi ptr [ %18, %dictHashKey.exit ], [ null, %2 ]
  ret ptr %.0
}